target datalayout = "e-m:e-p270:32:32-p271:32:32-p272:64:64-i64:64-i128:128-f80:128-n8:16:32:64-S128"
target triple = "x86_64-pc-linux-gnu"

@shar_quote.meta = internal constant [26 x i8] c"\0A \09'`\22;&<>()|*?{}[]\\$!#^~\00", align 16
@.str.24 = private unnamed_addr constant [4 x i8] c"\22\0A\22\00", align 1
@.str.25 = private unnamed_addr constant [3 x i8] c"\\n\00", align 1

; Function Attrs: nounwind uwtable
define internal void @shar_quote(ptr noundef %0, ptr noundef %1, i32 noundef %2) #0 {
  %4 = alloca ptr, align 8
  %5 = alloca ptr, align 8
  %6 = alloca i32, align 4
  %7 = alloca i64, align 8
  store ptr %0, ptr %4, align 8, !tbaa !55
  store ptr %1, ptr %5, align 8, !tbaa !43
  store i32 %2, ptr %6, align 4, !tbaa !11
  call void @llvm.lifetime.start.p0(i64 8, ptr %7) #7
  br label %8

8:                                                ; preds = %52, %3
  %9 = load ptr, ptr %5, align 8, !tbaa !43
  %10 = load i8, ptr %9, align 1, !tbaa !44
  %11 = sext i8 %10 to i32
  %12 = icmp ne i32 %11, 0
  br i1 %12, label %13, label %53

13:                                               ; preds = %8
  %14 = load ptr, ptr %5, align 8, !tbaa !43
  %15 = call i64 @strcspn(ptr noundef %14, ptr noundef @shar_quote.meta) #9
  store i64 %15, ptr %7, align 8, !tbaa !51
  %16 = icmp ne i64 %15, 0
  br i1 %16, label %17, label %25

17:                                               ; preds = %13
  %18 = load ptr, ptr %4, align 8, !tbaa !55
  %19 = load ptr, ptr %5, align 8, !tbaa !43
  %20 = load i64, ptr %7, align 8, !tbaa !51
  %21 = call ptr @archive_strncat(ptr noundef %18, ptr noundef %19, i64 noundef %20)
  %22 = load i64, ptr %7, align 8, !tbaa !51
  %23 = load ptr, ptr %5, align 8, !tbaa !43
  %24 = getelementptr inbounds nuw i8, ptr %23, i64 %22
  store ptr %24, ptr %5, align 8, !tbaa !43
  br label %52

25:                                               ; preds = %13
  %26 = load ptr, ptr %5, align 8, !tbaa !43
  %27 = load i8, ptr %26, align 1, !tbaa !44
  %28 = sext i8 %27 to i32
  %29 = icmp eq i32 %28, 10
  br i1 %29, label %30, label %42

30:                                               ; preds = %25
  %31 = load i32, ptr %6, align 4, !tbaa !11
  %32 = icmp ne i32 %31, 0
  br i1 %32, label %33, label %36

33:                                               ; preds = %30
  %34 = load ptr, ptr %4, align 8, !tbaa !55
  %35 = call ptr @archive_strcat(ptr noundef %34, ptr noundef @.str.24)
  br label %39

36:                                               ; preds = %30
  %37 = load ptr, ptr %4, align 8, !tbaa !55
  %38 = call ptr @archive_strcat(ptr noundef %37, ptr noundef @.str.25)
  br label %39

39:                                               ; preds = %36, %33
  %40 = load ptr, ptr %5, align 8, !tbaa !43
  %41 = getelementptr inbounds nuw i8, ptr %40, i32 1
  store ptr %41, ptr %5, align 8, !tbaa !43
  br label %51

42:                                               ; preds = %25
  %43 = load ptr, ptr %4, align 8, !tbaa !55
  %44 = call ptr @archive_strappend_char(ptr noundef %43, i8 noundef signext 92)
  %45 = load ptr, ptr %4, align 8, !tbaa !55
  %46 = load ptr, ptr %5, align 8, !tbaa !43
  %47 = load i8, ptr %46, align 1, !tbaa !44
  %48 = call ptr @archive_strappend_char(ptr noundef %45, i8 noundef signext %47)
  %49 = load ptr, ptr %5, align 8, !tbaa !43
  %50 = getelementptr inbounds nuw i8, ptr %49, i32 1
  store ptr %50, ptr %5, align 8, !tbaa !43
  br label %51

51:                                               ; preds = %42, %39
  br label %52

52:                                               ; preds = %51, %17
  br label %8, !llvm.loop !57

53:                                               ; preds = %8
  call void @llvm.lifetime.end.p0(i64 8, ptr %7) #7
  ret void
}