; Function Attrs: nounwind uwtable
define internal fastcc void @shar_quote(ptr noundef %0, ptr noundef %1, i32 noundef range(i32 0, 2) %2) unnamed_addr #0 {
  %4 = load i8, ptr %1, align 1, !tbaa !30
  %.not19 = icmp eq i8 %4, 0
  br i1 %.not19, label %._crit_edge, label %.lr.ph

.lr.ph:                                           ; preds = %3
  %.not18 = icmp eq i32 %2, 0
  br i1 %.not18, label %.lr.ph.split.us, label %.lr.ph.split

.lr.ph.split.us:                                  ; preds = %.lr.ph, %17
  %5 = phi i8 [ %19, %17 ], [ %4, %.lr.ph ]
  %.020.us = phi ptr [ %18, %17 ], [ %1, %.lr.ph ]
  %6 = tail call i64 @strcspn(ptr noundef nonnull %.020.us, ptr noundef nonnull @shar_quote.meta) #10
  %.not17.us = icmp eq i64 %6, 0
  br i1 %.not17.us, label %9, label %7

7:                                                ; preds = %.lr.ph.split.us
  %8 = tail call ptr @archive_strncat(ptr noundef %0, ptr noundef nonnull %.020.us, i64 noundef %6) #8
  br label %17

9:                                                ; preds = %.lr.ph.split.us
  %10 = icmp eq i8 %5, 10
  br i1 %10, label %15, label %11

11:                                               ; preds = %9
  %12 = tail call ptr @archive_strappend_char(ptr noundef %0, i8 noundef signext 92) #8
  %13 = load i8, ptr %.020.us, align 1, !tbaa !30
  %14 = tail call ptr @archive_strappend_char(ptr noundef %0, i8 noundef signext %13) #8
  br label %17

15:                                               ; preds = %9
  %16 = tail call ptr @archive_strcat(ptr noundef %0, ptr noundef nonnull @.str.25) #8
  br label %17

17:                                               ; preds = %15, %11, %7
  %.sink = phi i64 [ 1, %15 ], [ 1, %11 ], [ %6, %7 ]
  %18 = getelementptr inbounds nuw i8, ptr %.020.us, i64 %.sink
  %19 = load i8, ptr %18, align 1, !tbaa !30
  %.not.us = icmp eq i8 %19, 0
  br i1 %.not.us, label %._crit_edge, label %.lr.ph.split.us, !llvm.loop !31

.lr.ph.split:                                     ; preds = %.lr.ph, %32
  %20 = phi i8 [ %34, %32 ], [ %4, %.lr.ph ]
  %.020 = phi ptr [ %33, %32 ], [ %1, %.lr.ph ]
  %21 = tail call i64 @strcspn(ptr noundef nonnull %.020, ptr noundef nonnull @shar_quote.meta) #10
  %.not17 = icmp eq i64 %21, 0
  br i1 %.not17, label %24, label %22

22:                                               ; preds = %.lr.ph.split
  %23 = tail call ptr @archive_strncat(ptr noundef %0, ptr noundef nonnull %.020, i64 noundef %21) #8
  br label %32

24:                                               ; preds = %.lr.ph.split
  %25 = icmp eq i8 %20, 10
  br i1 %25, label %26, label %28

26:                                               ; preds = %24
  %27 = tail call ptr @archive_strcat(ptr noundef %0, ptr noundef nonnull @.str.24) #8
  br label %32

28:                                               ; preds = %24
  %29 = tail call ptr @archive_strappend_char(ptr noundef %0, i8 noundef signext 92) #8
  %30 = load i8, ptr %.020, align 1, !tbaa !30
  %31 = tail call ptr @archive_strappend_char(ptr noundef %0, i8 noundef signext %30) #8
  br label %32

32:                                               ; preds = %26, %28, %22
  %.sink23 = phi i64 [ 1, %26 ], [ 1, %28 ], [ %21, %22 ]
  %33 = getelementptr inbounds nuw i8, ptr %.020, i64 %.sink23
  %34 = load i8, ptr %33, align 1, !tbaa !30
  %.not = icmp eq i8 %34, 0
  br i1 %.not, label %._crit_edge, label %.lr.ph.split, !llvm.loop !31

._crit_edge:                                      ; preds = %32, %17, %3
  ret void
}